target datalayout = "e-m:e-p270:32:32-p271:32:32-p272:64:64-i64:64-i128:128-f80:128-n8:16:32:64-S128"
target triple = "x86_64-pc-linux-gnu"

; Function Attrs: mustprogress uwtable
define noundef zeroext i1 @_ZN4LIEF5MachO12DylibCommand7classofEPKNS0_11LoadCommandE(ptr noundef %0) #2 align 2 {
  %2 = alloca ptr, align 8
  %3 = alloca i64, align 8
  store ptr %0, ptr %2, align 8
  %4 = load ptr, ptr %2, align 8
  %5 = call noundef i64 @_ZNK4LIEF5MachO11LoadCommand7commandEv(ptr noundef nonnull align 8 dereferenceable(56) %4)
  store i64 %5, ptr %3, align 8
  %6 = load i64, ptr %3, align 8
  %7 = icmp eq i64 %6, 2147483672
  br i1 %7, label %23, label %8

8:                                                ; preds = %1
  %9 = load i64, ptr %3, align 8
  %10 = icmp eq i64 %9, 13
  br i1 %10, label %23, label %11

11:                                               ; preds = %8
  %12 = load i64, ptr %3, align 8
  %13 = icmp eq i64 %12, 12
  br i1 %13, label %23, label %14

14:                                               ; preds = %11
  %15 = load i64, ptr %3, align 8
  %16 = icmp eq i64 %15, 2147483679
  br i1 %16, label %23, label %17

17:                                               ; preds = %14
  %18 = load i64, ptr %3, align 8
  %19 = icmp eq i64 %18, 2147483683
  br i1 %19, label %23, label %20

20:                                               ; preds = %17
  %21 = load i64, ptr %3, align 8
  %22 = icmp eq i64 %21, 32
  br label %23

23:                                               ; preds = %20, %17, %14, %11, %8, %1
  %24 = phi i1 [ true, %17 ], [ true, %14 ], [ true, %11 ], [ true, %8 ], [ true, %1 ], [ %22, %20 ]
  ret i1 %24
}