; Function Attrs: mustprogress uwtable
define noundef zeroext i1 @_ZN4LIEF5MachO12DylibCommand7classofEPKNS0_11LoadCommandE(ptr noundef nonnull %0) local_unnamed_addr #2 align 2 {
  %2 = tail call noundef i64 @_ZNK4LIEF5MachO11LoadCommand7commandEv(ptr noundef nonnull align 8 dereferenceable(56) %0)
  switch i64 %2, label %3 [
    i64 2147483683, label %switch.edge
    i64 2147483679, label %switch.edge
    i64 2147483672, label %switch.edge
    i64 13, label %switch.edge
    i64 12, label %switch.edge
    i64 32, label %switch.edge
  ]

3:                                                ; preds = %1
  br label %switch.edge

switch.edge:                                      ; preds = %1, %1, %1, %1, %1, %1, %3
  %4 = phi i1 [ true, %1 ], [ false, %3 ], [ true, %1 ], [ true, %1 ], [ true, %1 ], [ true, %1 ], [ true, %1 ]
  ret i1 %4
}